target datalayout = "e-m:e-p270:32:32-p271:32:32-p272:64:64-i64:64-i128:128-f80:128-n8:16:32:64-S128"
target triple = "x86_64-pc-linux-gnu"

%struct.CRYPTO_REF_COUNT = type { i32 }
%struct.bio_st = type { ptr, ptr, ptr, ptr, ptr, i32, i32, i32, i32, i32, ptr, ptr, ptr, %struct.CRYPTO_REF_COUNT, i64, i64, %struct.crypto_ex_data_st }
%struct.crypto_ex_data_st = type { ptr, ptr }

@.str = private unnamed_addr constant [32 x i8] c"../openssl/crypto/bio/bio_lib.c\00", align 1
@__func__.BIO_wait = private unnamed_addr constant [9 x i8] c"BIO_wait\00", align 1

; Function Attrs: nounwind uwtable
define i32 @BIO_test_flags(ptr noundef %0, i32 noundef %1) #0 {
  %3 = alloca ptr, align 8
  %4 = alloca i32, align 4
  store ptr %0, ptr %3, align 8, !tbaa !10
  store i32 %1, ptr %4, align 4, !tbaa !26
  %5 = load ptr, ptr %3, align 8, !tbaa !10
  %6 = getelementptr inbounds nuw %struct.bio_st, ptr %5, i32 0, i32 7
  %7 = load i32, ptr %6, align 8, !tbaa !38
  %8 = load i32, ptr %4, align 4, !tbaa !26
  %9 = and i32 %7, %8
  ret i32 %9
}

; Function Attrs: nounwind uwtable
define internal i32 @bio_wait(ptr noundef %0, i64 noundef %1, i32 noundef %2) #0 {
  %4 = alloca i32, align 4
  %5 = alloca ptr, align 8
  %6 = alloca i64, align 8
  %7 = alloca i32, align 4
  %8 = alloca i32, align 4
  %9 = alloca i64, align 8
  %10 = alloca i32, align 4
  %11 = alloca i32, align 4
  store ptr %0, ptr %5, align 8, !tbaa !10
  store i64 %1, ptr %6, align 8, !tbaa !34
  store i32 %2, ptr %7, align 4, !tbaa !26
  call void @llvm.lifetime.start.p0(i64 4, ptr %8) #5
  call void @llvm.lifetime.start.p0(i64 8, ptr %9) #5
  %12 = load i64, ptr %6, align 8, !tbaa !34
  %13 = icmp eq i64 %12, 0
  br i1 %13, label %14, label %15

14:                                               ; preds = %3
  store i32 1, ptr %4, align 4
  store i32 1, ptr %10, align 4
  br label %62

15:                                               ; preds = %3
  %16 = load ptr, ptr %5, align 8, !tbaa !10
  %17 = call i64 @BIO_ctrl(ptr noundef %16, i32 noundef 105, i64 noundef 0, ptr noundef %8)
  %18 = icmp sgt i64 %17, 0
  br i1 %18, label %19, label %33

19:                                               ; preds = %15
  call void @llvm.lifetime.start.p0(i64 4, ptr %11) #5
  %20 = load i32, ptr %8, align 4, !tbaa !26
  %21 = load ptr, ptr %5, align 8, !tbaa !10
  %22 = call i32 @BIO_test_flags(ptr noundef %21, i32 noundef 1)
  %23 = load i64, ptr %6, align 8, !tbaa !34
  %24 = call i32 @BIO_socket_wait(i32 noundef %20, i32 noundef %22, i64 noundef %23)
  store i32 %24, ptr %11, align 4, !tbaa !26
  %25 = load i32, ptr %11, align 4, !tbaa !26
  %26 = icmp ne i32 %25, -1
  br i1 %26, label %27, label %29

27:                                               ; preds = %19
  %28 = load i32, ptr %11, align 4, !tbaa !26
  store i32 %28, ptr %4, align 4
  store i32 1, ptr %10, align 4
  br label %30

29:                                               ; preds = %19
  store i32 0, ptr %10, align 4
  br label %30

30:                                               ; preds = %29, %27
  call void @llvm.lifetime.end.p0(i64 4, ptr %11) #5
  %31 = load i32, ptr %10, align 4
  switch i32 %31, label %62 [
    i32 0, label %32
  ]

32:                                               ; preds = %30
  br label %33

33:                                               ; preds = %32, %15
  %34 = load i64, ptr %6, align 8, !tbaa !34
  %35 = call i64 @time(ptr noundef null) #5
  %36 = sub nsw i64 %34, %35
  store i64 %36, ptr %9, align 8, !tbaa !34
  %37 = load i64, ptr %9, align 8, !tbaa !34
  %38 = icmp slt i64 %37, 0
  br i1 %38, label %39, label %40

39:                                               ; preds = %33
  store i32 0, ptr %4, align 4
  store i32 1, ptr %10, align 4
  br label %62

40:                                               ; preds = %33
  %41 = load i64, ptr %9, align 8, !tbaa !34
  %42 = icmp eq i64 %41, 0
  br i1 %42, label %43, label %48

43:                                               ; preds = %40
  %44 = load i32, ptr %7, align 4, !tbaa !26
  %45 = icmp ugt i32 %44, 1000
  br i1 %45, label %46, label %47

46:                                               ; preds = %43
  store i32 1000, ptr %7, align 4, !tbaa !26
  br label %47

47:                                               ; preds = %46, %43
  br label %59

48:                                               ; preds = %40
  %49 = load i64, ptr %9, align 8, !tbaa !34
  %50 = mul i64 %49, 1000
  %51 = load i32, ptr %7, align 4, !tbaa !26
  %52 = zext i32 %51 to i64
  %53 = icmp ult i64 %50, %52
  br i1 %53, label %54, label %58

54:                                               ; preds = %48
  %55 = load i64, ptr %9, align 8, !tbaa !34
  %56 = trunc i64 %55 to i32
  %57 = mul i32 %56, 1000
  store i32 %57, ptr %7, align 4, !tbaa !26
  br label %58

58:                                               ; preds = %54, %48
  br label %59

59:                                               ; preds = %58, %47
  %60 = load i32, ptr %7, align 4, !tbaa !26
  %61 = zext i32 %60 to i64
  call void @OSSL_sleep(i64 noundef %61)
  store i32 1, ptr %4, align 4
  store i32 1, ptr %10, align 4
  br label %62

62:                                               ; preds = %59, %39, %30, %14
  call void @llvm.lifetime.end.p0(i64 8, ptr %9) #5
  call void @llvm.lifetime.end.p0(i64 4, ptr %8) #5
  %63 = load i32, ptr %4, align 4
  ret i32 %63
}

; Function Attrs: nounwind uwtable
define i32 @BIO_wait(ptr noundef %0, i64 noundef %1, i32 noundef %2) #0 {
  %4 = alloca ptr, align 8
  %5 = alloca i64, align 8
  %6 = alloca i32, align 4
  %7 = alloca i32, align 4
  store ptr %0, ptr %4, align 8, !tbaa !10
  store i64 %1, ptr %5, align 8, !tbaa !34
  store i32 %2, ptr %6, align 4, !tbaa !26
  call void @llvm.lifetime.start.p0(i64 4, ptr %7) #5
  %8 = load ptr, ptr %4, align 8, !tbaa !10
  %9 = load i64, ptr %5, align 8, !tbaa !34
  %10 = load i32, ptr %6, align 4, !tbaa !26
  %11 = call i32 @bio_wait(ptr noundef %8, i64 noundef %9, i32 noundef %10)
  store i32 %11, ptr %7, align 4, !tbaa !26
  %12 = load i32, ptr %7, align 4, !tbaa !26
  %13 = icmp sle i32 %12, 0
  br i1 %13, label %14, label %18

14:                                               ; preds = %3
  call void @ERR_new()
  call void @ERR_set_debug(ptr noundef @.str, i32 noundef 1007, ptr noundef @__func__.BIO_wait)
  %15 = load i32, ptr %7, align 4, !tbaa !26
  %16 = icmp eq i32 %15, 0
  %17 = select i1 %16, i32 105, i32 104
  call void (i32, i32, ptr, ...) @ERR_set_error(i32 noundef 32, i32 noundef %17, ptr noundef null)
  br label %18

18:                                               ; preds = %14, %3
  %19 = load i32, ptr %7, align 4, !tbaa !26
  call void @llvm.lifetime.end.p0(i64 4, ptr %7) #5
  ret i32 %19
}