; Function Attrs: nounwind uwtable
define i32 @BIO_wait(ptr noundef %0, i64 noundef %1, i32 noundef %2) local_unnamed_addr #0 {
  %4 = alloca i32, align 4
  call void @llvm.lifetime.start.p0(i64 4, ptr nonnull %4) #14
  %5 = icmp eq i64 %1, 0
  br i1 %5, label %bio_wait.exit.thread, label %6

6:                                                ; preds = %3
  %7 = call i64 @BIO_ctrl(ptr noundef %0, i32 noundef 105, i64 noundef 0, ptr noundef nonnull %4)
  %8 = icmp sgt i64 %7, 0
  br i1 %8, label %9, label %15

9:                                                ; preds = %6
  %10 = load i32, ptr %4, align 4, !tbaa !53
  %11 = getelementptr inbounds nuw i8, ptr %0, i64 48
  %12 = load i32, ptr %11, align 8, !tbaa !27
  %13 = and i32 %12, 1
  %14 = call i32 @BIO_socket_wait(i32 noundef %10, i32 noundef %13, i64 noundef %1) #14
  %.not.i = icmp eq i32 %14, -1
  br i1 %.not.i, label %15, label %bio_wait.exit

15:                                               ; preds = %9, %6
  %16 = call i64 @time(ptr noundef null) #14
  %17 = sub nsw i64 %1, %16
  %18 = icmp slt i64 %17, 0
  br i1 %18, label %bio_wait.exit.thread7, label %19

bio_wait.exit.thread7:                            ; preds = %15
  call void @llvm.lifetime.end.p0(i64 4, ptr nonnull %4) #14
  br label %32

19:                                               ; preds = %15
  %20 = icmp eq i64 %1, %16
  br i1 %20, label %21, label %22

21:                                               ; preds = %19
  %spec.store.select.i = call i32 @llvm.umin.i32(i32 %2, i32 1000)
  br label %29

22:                                               ; preds = %19
  %23 = mul i64 %17, 1000
  %24 = zext i32 %2 to i64
  %25 = icmp ult i64 %23, %24
  br i1 %25, label %26, label %29

26:                                               ; preds = %22
  %27 = trunc i64 %17 to i32
  %28 = mul i32 %27, 1000
  br label %29

29:                                               ; preds = %26, %22, %21
  %.016.i = phi i32 [ %spec.store.select.i, %21 ], [ %28, %26 ], [ %2, %22 ]
  %30 = zext i32 %.016.i to i64
  call void @OSSL_sleep(i64 noundef %30) #14
  br label %bio_wait.exit.thread

bio_wait.exit.thread:                             ; preds = %29, %3
  call void @llvm.lifetime.end.p0(i64 4, ptr nonnull %4) #14
  br label %34

bio_wait.exit:                                    ; preds = %9
  call void @llvm.lifetime.end.p0(i64 4, ptr nonnull %4) #14
  %31 = icmp slt i32 %14, 1
  br i1 %31, label %32, label %34

32:                                               ; preds = %bio_wait.exit.thread7, %bio_wait.exit
  %.0.i9 = phi i32 [ 0, %bio_wait.exit.thread7 ], [ %14, %bio_wait.exit ]
  %.0.i9.fr = freeze i32 %.0.i9
  call void @ERR_new() #14
  call void @ERR_set_debug(ptr noundef nonnull @.str, i32 noundef 1007, ptr noundef nonnull @__func__.BIO_wait) #14
  %33 = icmp eq i32 %.0.i9.fr, 0
  %spec.select = select i1 %33, i32 105, i32 104
  call void (i32, i32, ptr, ...) @ERR_set_error(i32 noundef 32, i32 noundef %spec.select, ptr noundef null) #14
  br label %34

34:                                               ; preds = %bio_wait.exit.thread, %32, %bio_wait.exit
  %.0.i6 = phi i32 [ 1, %bio_wait.exit.thread ], [ %.0.i9.fr, %32 ], [ %14, %bio_wait.exit ]
  ret i32 %.0.i6
}